target datalayout = "e-m:e-p270:32:32-p271:32:32-p272:64:64-i64:64-i128:128-f80:128-n8:16:32:64-S128"
target triple = "x86_64-pc-linux-gnu"

%struct.OnigMatchParamStruct = type { i32, i64, i64, ptr, ptr, ptr, i32, ptr, i32 }
%struct.OnigCalloutArgsStruct = type { i32, i32, i32, ptr, ptr, ptr, ptr, ptr, ptr, i64, ptr, ptr, ptr, ptr, ptr }
%struct.MatchArg = type { ptr, i32, i32, ptr, i32, ptr, i32, i64, i64, i64, ptr, i32, ptr, i64, ptr }
%struct.CalloutData = type { i32, [5 x %struct.anon] }
%struct.anon = type { i32, %union.OnigValue }
%union.OnigValue = type { %struct.anon.0 }
%struct.anon.0 = type { ptr, ptr }

; Function Attrs: nounwind uwtable
define dso_local i32 @onig_set_callout_data(ptr noundef %0, ptr noundef %1, i32 noundef %2, i32 noundef %3, i32 noundef %4, ptr noundef %5) #0 {
  %7 = alloca i32, align 4
  %8 = alloca ptr, align 8
  %9 = alloca ptr, align 8
  %10 = alloca i32, align 4
  %11 = alloca i32, align 4
  %12 = alloca i32, align 4
  %13 = alloca ptr, align 8
  %14 = alloca ptr, align 8
  %15 = alloca i32, align 4
  store ptr %0, ptr %8, align 8, !tbaa !57
  store ptr %1, ptr %9, align 8, !tbaa !4
  store i32 %2, ptr %10, align 4, !tbaa !9
  store i32 %3, ptr %11, align 4, !tbaa !9
  store i32 %4, ptr %12, align 4, !tbaa !9
  store ptr %5, ptr %13, align 8, !tbaa !17
  call void @llvm.lifetime.start.p0(i64 8, ptr %14) #9
  %16 = load i32, ptr %10, align 4, !tbaa !9
  %17 = icmp sle i32 %16, 0
  br i1 %17, label %18, label %19

18:                                               ; preds = %6
  store i32 -30, ptr %7, align 4
  store i32 1, ptr %15, align 4
  br label %46

19:                                               ; preds = %6
  %20 = load ptr, ptr %9, align 8, !tbaa !4
  %21 = getelementptr inbounds nuw %struct.OnigMatchParamStruct, ptr %20, i32 0, i32 7
  %22 = load ptr, ptr %21, align 8, !tbaa !43
  %23 = load i32, ptr %10, align 4, !tbaa !9
  %24 = sub nsw i32 %23, 1
  %25 = sext i32 %24 to i64
  %26 = getelementptr inbounds %struct.CalloutData, ptr %22, i64 %25
  store ptr %26, ptr %14, align 8, !tbaa !17
  %27 = load i32, ptr %12, align 4, !tbaa !9
  %28 = load ptr, ptr %14, align 8, !tbaa !17
  %29 = getelementptr inbounds nuw %struct.CalloutData, ptr %28, i32 0, i32 1
  %30 = load i32, ptr %11, align 4, !tbaa !9
  %31 = sext i32 %30 to i64
  %32 = getelementptr inbounds [5 x %struct.anon], ptr %29, i64 0, i64 %31
  %33 = getelementptr inbounds nuw %struct.anon, ptr %32, i32 0, i32 0
  store i32 %27, ptr %33, align 8, !tbaa !55
  %34 = load ptr, ptr %14, align 8, !tbaa !17
  %35 = getelementptr inbounds nuw %struct.CalloutData, ptr %34, i32 0, i32 1
  %36 = load i32, ptr %11, align 4, !tbaa !9
  %37 = sext i32 %36 to i64
  %38 = getelementptr inbounds [5 x %struct.anon], ptr %35, i64 0, i64 %37
  %39 = getelementptr inbounds nuw %struct.anon, ptr %38, i32 0, i32 1
  %40 = load ptr, ptr %13, align 8, !tbaa !17
  call void @llvm.memcpy.p0.p0.i64(ptr align 8 %39, ptr align 8 %40, i64 16, i1 false), !tbaa.struct !58
  %41 = load ptr, ptr %9, align 8, !tbaa !4
  %42 = getelementptr inbounds nuw %struct.OnigMatchParamStruct, ptr %41, i32 0, i32 6
  %43 = load i32, ptr %42, align 8, !tbaa !42
  %44 = load ptr, ptr %14, align 8, !tbaa !17
  %45 = getelementptr inbounds nuw %struct.CalloutData, ptr %44, i32 0, i32 0
  store i32 %43, ptr %45, align 8, !tbaa !55
  store i32 0, ptr %7, align 4
  store i32 1, ptr %15, align 4
  br label %46

46:                                               ; preds = %19, %18
  call void @llvm.lifetime.end.p0(i64 8, ptr %14) #9
  %47 = load i32, ptr %7, align 4
  ret i32 %47
}

; Function Attrs: nounwind uwtable
define dso_local i32 @onig_set_callout_data_by_callout_args_self(ptr noundef %0, i32 noundef %1, i32 noundef %2, ptr noundef %3) #0 {
  %5 = alloca ptr, align 8
  %6 = alloca i32, align 4
  %7 = alloca i32, align 4
  %8 = alloca ptr, align 8
  store ptr %0, ptr %5, align 8, !tbaa !45
  store i32 %1, ptr %6, align 4, !tbaa !9
  store i32 %2, ptr %7, align 4, !tbaa !9
  store ptr %3, ptr %8, align 8, !tbaa !17
  %9 = load ptr, ptr %5, align 8, !tbaa !45
  %10 = getelementptr inbounds nuw %struct.OnigCalloutArgsStruct, ptr %9, i32 0, i32 3
  %11 = load ptr, ptr %10, align 8, !tbaa !61
  %12 = load ptr, ptr %5, align 8, !tbaa !45
  %13 = getelementptr inbounds nuw %struct.OnigCalloutArgsStruct, ptr %12, i32 0, i32 10
  %14 = load ptr, ptr %13, align 8, !tbaa !47
  %15 = getelementptr inbounds nuw %struct.MatchArg, ptr %14, i32 0, i32 10
  %16 = load ptr, ptr %15, align 8, !tbaa !52
  %17 = load ptr, ptr %5, align 8, !tbaa !45
  %18 = getelementptr inbounds nuw %struct.OnigCalloutArgsStruct, ptr %17, i32 0, i32 2
  %19 = load i32, ptr %18, align 8, !tbaa !54
  %20 = load i32, ptr %6, align 4, !tbaa !9
  %21 = load i32, ptr %7, align 4, !tbaa !9
  %22 = load ptr, ptr %8, align 8, !tbaa !17
  %23 = call i32 @onig_set_callout_data(ptr noundef %11, ptr noundef %16, i32 noundef %19, i32 noundef %20, i32 noundef %21, ptr noundef %22)
  ret i32 %23
}